target datalayout = "e-m:e-p270:32:32-p271:32:32-p272:64:64-i64:64-i128:128-f80:128-n8:16:32:64-S128"
target triple = "x86_64-pc-linux-gnu"

%struct.asn1_object_st = type { ptr, ptr, i32, i32, ptr, i32 }

@.str = private unnamed_addr constant [34 x i8] c"../openssl/crypto/asn1/a_object.c\00", align 1

; Function Attrs: nounwind uwtable
define void @ASN1_OBJECT_free(ptr noundef %0) #0 {
  %2 = alloca ptr, align 8
  store ptr %0, ptr %2, align 8, !tbaa !3
  %3 = load ptr, ptr %2, align 8, !tbaa !3
  %4 = icmp eq ptr %3, null
  br i1 %4, label %5, label %6

5:                                                ; preds = %1
  br label %45

6:                                                ; preds = %1
  %7 = load ptr, ptr %2, align 8, !tbaa !3
  %8 = getelementptr inbounds nuw %struct.asn1_object_st, ptr %7, i32 0, i32 5
  %9 = load i32, ptr %8, align 8, !tbaa !30
  %10 = and i32 %9, 4
  %11 = icmp ne i32 %10, 0
  br i1 %11, label %12, label %23

12:                                               ; preds = %6
  %13 = load ptr, ptr %2, align 8, !tbaa !3
  %14 = getelementptr inbounds nuw %struct.asn1_object_st, ptr %13, i32 0, i32 0
  %15 = load ptr, ptr %14, align 8, !tbaa !32
  call void @CRYPTO_free(ptr noundef %15, ptr noundef @.str, i32 noundef 357)
  %16 = load ptr, ptr %2, align 8, !tbaa !3
  %17 = getelementptr inbounds nuw %struct.asn1_object_st, ptr %16, i32 0, i32 1
  %18 = load ptr, ptr %17, align 8, !tbaa !33
  call void @CRYPTO_free(ptr noundef %18, ptr noundef @.str, i32 noundef 358)
  %19 = load ptr, ptr %2, align 8, !tbaa !3
  %20 = getelementptr inbounds nuw %struct.asn1_object_st, ptr %19, i32 0, i32 1
  store ptr null, ptr %20, align 8, !tbaa !33
  %21 = load ptr, ptr %2, align 8, !tbaa !3
  %22 = getelementptr inbounds nuw %struct.asn1_object_st, ptr %21, i32 0, i32 0
  store ptr null, ptr %22, align 8, !tbaa !32
  br label %23

23:                                               ; preds = %12, %6
  %24 = load ptr, ptr %2, align 8, !tbaa !3
  %25 = getelementptr inbounds nuw %struct.asn1_object_st, ptr %24, i32 0, i32 5
  %26 = load i32, ptr %25, align 8, !tbaa !30
  %27 = and i32 %26, 8
  %28 = icmp ne i32 %27, 0
  br i1 %28, label %29, label %37

29:                                               ; preds = %23
  %30 = load ptr, ptr %2, align 8, !tbaa !3
  %31 = getelementptr inbounds nuw %struct.asn1_object_st, ptr %30, i32 0, i32 4
  %32 = load ptr, ptr %31, align 8, !tbaa !12
  call void @CRYPTO_free(ptr noundef %32, ptr noundef @.str, i32 noundef 363)
  %33 = load ptr, ptr %2, align 8, !tbaa !3
  %34 = getelementptr inbounds nuw %struct.asn1_object_st, ptr %33, i32 0, i32 4
  store ptr null, ptr %34, align 8, !tbaa !12
  %35 = load ptr, ptr %2, align 8, !tbaa !3
  %36 = getelementptr inbounds nuw %struct.asn1_object_st, ptr %35, i32 0, i32 3
  store i32 0, ptr %36, align 4, !tbaa !15
  br label %37

37:                                               ; preds = %29, %23
  %38 = load ptr, ptr %2, align 8, !tbaa !3
  %39 = getelementptr inbounds nuw %struct.asn1_object_st, ptr %38, i32 0, i32 5
  %40 = load i32, ptr %39, align 8, !tbaa !30
  %41 = and i32 %40, 1
  %42 = icmp ne i32 %41, 0
  br i1 %42, label %43, label %45

43:                                               ; preds = %37
  %44 = load ptr, ptr %2, align 8, !tbaa !3
  call void @CRYPTO_free(ptr noundef %44, ptr noundef @.str, i32 noundef 368)
  br label %45

45:                                               ; preds = %5, %43, %37
  ret void
}