; Function Attrs: nounwind uwtable
define void @ASN1_OBJECT_free(ptr noundef %0) local_unnamed_addr #0 {
  %2 = icmp eq ptr %0, null
  br i1 %2, label %22, label %3

3:                                                ; preds = %1
  %4 = getelementptr inbounds nuw i8, ptr %0, i64 32
  %5 = load i32, ptr %4, align 8, !tbaa !20
  %6 = and i32 %5, 4
  %.not = icmp eq i32 %6, 0
  br i1 %.not, label %11, label %7

7:                                                ; preds = %3
  %8 = load ptr, ptr %0, align 8, !tbaa !23
  tail call void @CRYPTO_free(ptr noundef %8, ptr noundef nonnull @.str, i32 noundef 357) #6
  %9 = getelementptr inbounds nuw i8, ptr %0, i64 8
  %10 = load ptr, ptr %9, align 8, !tbaa !24
  tail call void @CRYPTO_free(ptr noundef %10, ptr noundef nonnull @.str, i32 noundef 358) #6
  tail call void @llvm.memset.p0.i64(ptr noundef nonnull align 8 dereferenceable(16) %0, i8 0, i64 16, i1 false)
  %.pre = load i32, ptr %4, align 8, !tbaa !20
  br label %11

11:                                               ; preds = %7, %3
  %12 = phi i32 [ %.pre, %7 ], [ %5, %3 ]
  %13 = and i32 %12, 8
  %.not12 = icmp eq i32 %13, 0
  br i1 %.not12, label %18, label %14

14:                                               ; preds = %11
  %15 = getelementptr inbounds nuw i8, ptr %0, i64 24
  %16 = load ptr, ptr %15, align 8, !tbaa !3
  tail call void @CRYPTO_free(ptr noundef %16, ptr noundef nonnull @.str, i32 noundef 363) #6
  store ptr null, ptr %15, align 8, !tbaa !3
  %17 = getelementptr inbounds nuw i8, ptr %0, i64 20
  store i32 0, ptr %17, align 4, !tbaa !10
  %.pre14 = load i32, ptr %4, align 8, !tbaa !20
  br label %18

18:                                               ; preds = %14, %11
  %19 = phi i32 [ %.pre14, %14 ], [ %12, %11 ]
  %20 = and i32 %19, 1
  %.not13 = icmp eq i32 %20, 0
  br i1 %.not13, label %22, label %21

21:                                               ; preds = %18
  tail call void @CRYPTO_free(ptr noundef nonnull %0, ptr noundef nonnull @.str, i32 noundef 368) #6
  br label %22

22:                                               ; preds = %1, %21, %18
  ret void
}